target datalayout = "e-m:e-p270:32:32-p271:32:32-p272:64:64-i64:64-i128:128-f80:128-n8:16:32:64-S128"
target triple = "x86_64-pc-linux-gnu"

; Function Attrs: null_pointer_is_valid sspstrong uwtable
define internal i32 @get_z21_pdu_len(ptr noundef %0, ptr noundef %1, i32 noundef %2, ptr noundef %3) #0 {
  %5 = alloca ptr, align 8
  %6 = alloca ptr, align 8
  %7 = alloca i32, align 4
  %8 = alloca ptr, align 8
  store ptr %0, ptr %5, align 8
  store ptr %1, ptr %6, align 8
  store i32 %2, ptr %7, align 4
  store ptr %3, ptr %8, align 8
  %9 = load ptr, ptr %6, align 8
  %10 = load i32, ptr %7, align 4
  %11 = call zeroext i16 @tvb_get_uint16(ptr noundef %9, i32 noundef %10, i32 noundef -2147483648)
  %12 = zext i16 %11 to i32
  ret i32 %12
}

; Function Attrs: null_pointer_is_valid sspstrong uwtable
define internal zeroext i1 @check_z21_header(ptr noundef %0, ptr noundef %1, i32 noundef %2, ptr noundef %3) #0 {
  %5 = alloca i1, align 1
  %6 = alloca ptr, align 8
  %7 = alloca ptr, align 8
  %8 = alloca i32, align 4
  %9 = alloca ptr, align 8
  %10 = alloca i32, align 4
  %11 = alloca i32, align 4
  %12 = alloca i32, align 4
  %13 = alloca i16, align 2
  store ptr %0, ptr %6, align 8
  store ptr %1, ptr %7, align 8
  store i32 %2, ptr %8, align 4
  store ptr %3, ptr %9, align 8
  call void @llvm.lifetime.start.p0(i64 4, ptr %10) #3
  %14 = load ptr, ptr %7, align 8
  %15 = load i32, ptr %8, align 4
  %16 = call i32 @tvb_reported_length_remaining(ptr noundef %14, i32 noundef %15)
  store i32 %16, ptr %10, align 4
  %17 = load i32, ptr %10, align 4
  %18 = icmp slt i32 %17, 4
  br i1 %18, label %19, label %20

19:                                               ; preds = %4
  store i1 false, ptr %5, align 1
  store i32 1, ptr %11, align 4
  br label %46

20:                                               ; preds = %4
  call void @llvm.lifetime.start.p0(i64 4, ptr %12) #3
  %21 = load ptr, ptr %6, align 8
  %22 = load ptr, ptr %7, align 8
  %23 = load i32, ptr %8, align 4
  %24 = load ptr, ptr %9, align 8
  %25 = call i32 @get_z21_pdu_len(ptr noundef %21, ptr noundef %22, i32 noundef %23, ptr noundef %24)
  store i32 %25, ptr %12, align 4
  %26 = load i32, ptr %12, align 4
  %27 = icmp slt i32 %26, 4
  br i1 %27, label %32, label %28

28:                                               ; preds = %20
  %29 = load i32, ptr %12, align 4
  %30 = load i32, ptr %10, align 4
  %31 = icmp sgt i32 %29, %30
  br i1 %31, label %32, label %33

32:                                               ; preds = %28, %20
  store i1 false, ptr %5, align 1
  store i32 1, ptr %11, align 4
  br label %45

33:                                               ; preds = %28
  call void @llvm.lifetime.start.p0(i64 2, ptr %13) #3
  %34 = load ptr, ptr %7, align 8
  %35 = load i32, ptr %8, align 4
  %36 = add i32 %35, 2
  %37 = call zeroext i16 @tvb_get_uint16(ptr noundef %34, i32 noundef %36, i32 noundef 0)
  store i16 %37, ptr %13, align 2
  %38 = load i16, ptr %13, align 2
  %39 = zext i16 %38 to i32
  %40 = call ptr @try_val_to_str(i32 noundef %39, ptr noundef @z21_command_vals)
  %41 = icmp ne ptr %40, null
  br i1 %41, label %43, label %42

42:                                               ; preds = %33
  store i1 false, ptr %5, align 1
  store i32 1, ptr %11, align 4
  br label %44

43:                                               ; preds = %33
  store i1 true, ptr %5, align 1
  store i32 1, ptr %11, align 4
  br label %44

44:                                               ; preds = %43, %42
  call void @llvm.lifetime.end.p0(i64 2, ptr %13) #3
  br label %45

45:                                               ; preds = %44, %32
  call void @llvm.lifetime.end.p0(i64 4, ptr %12) #3
  br label %46

46:                                               ; preds = %45, %19
  call void @llvm.lifetime.end.p0(i64 4, ptr %10) #3
  %47 = load i1, ptr %5, align 1
  ret i1 %47
}