; Function Attrs: null_pointer_is_valid sspstrong uwtable
define internal zeroext i1 @check_z21_header(ptr readnone captures(none) %0, ptr noundef %1, i32 noundef %2, ptr readnone captures(none) %3) #0 {
  %5 = tail call i32 @tvb_reported_length_remaining(ptr noundef %1, i32 noundef %2)
  %6 = icmp slt i32 %5, 4
  br i1 %6, label %17, label %7

7:                                                ; preds = %4
  %8 = tail call zeroext i16 @tvb_get_uint16(ptr noundef %1, i32 noundef %2, i32 noundef -2147483648)
  %9 = zext i16 %8 to i32
  %10 = icmp ult i16 %8, 4
  %11 = icmp samesign ult i32 %5, %9
  %or.cond = or i1 %10, %11
  br i1 %or.cond, label %17, label %12

12:                                               ; preds = %7
  %13 = add i32 %2, 2
  %14 = tail call zeroext i16 @tvb_get_uint16(ptr noundef %1, i32 noundef %13, i32 noundef 0)
  %15 = zext i16 %14 to i32
  %16 = tail call ptr @try_val_to_str(i32 noundef %15, ptr noundef nonnull @z21_command_vals)
  %.not = icmp ne ptr %16, null
  br label %17

17:                                               ; preds = %12, %7, %4
  %.0 = phi i1 [ false, %4 ], [ %.not, %12 ], [ false, %7 ]
  ret i1 %.0
}